; Function Attrs: nounwind uwtable
define internal range(i32 -1, 1) i32 @_count_exclusivity(ptr noundef %0, ptr noundef %1) #0 {
  %3 = alloca %struct.excl_count_t, align 8
  call void @llvm.lifetime.start.p0(i64 16, ptr nonnull %3) #10
  store ptr %1, ptr %3, align 8
  %4 = getelementptr inbounds nuw i8, ptr %3, i64 8
  store i32 0, ptr %4, align 8
  %5 = getelementptr inbounds nuw i8, ptr %3, i64 12
  store i32 0, ptr %5, align 4
  %6 = call i32 @list_for_each(ptr noundef %0, ptr noundef nonnull @_get_list_excl_count, ptr noundef nonnull %3) #10
  %7 = load i32, ptr %4, align 8
  %8 = icmp ugt i32 %7, 1
  %. = sext i1 %8 to i32
  call void @llvm.lifetime.end.p0(i64 16, ptr nonnull %3) #10
  ret i32 %.
}